target datalayout = "e-m:e-p270:32:32-p271:32:32-p272:64:64-i64:64-i128:128-f80:128-n8:16:32:64-S128"
target triple = "x86_64-pc-linux-gnu"

%"class.cv::MatOp_Identity" = type { %"class.cv::MatOp" }
%"class.cv::MatOp" = type { ptr }
%"class.cv::MatOp_Invert" = type { %"class.cv::MatOp" }
%"class.cv::MatExpr" = type { ptr, i32, %"class.cv::Mat", %"class.cv::Mat", %"class.cv::Mat", double, double, %"class.cv::Scalar_" }
%"class.cv::Mat" = type { i32, i32, i32, i32, ptr, ptr, ptr, ptr, ptr, ptr, %"struct.cv::MatSize", %"struct.cv::MatStep" }
%"struct.cv::MatSize" = type { ptr }
%"struct.cv::MatStep" = type { ptr, [2 x i64] }
%"class.cv::Scalar_" = type { %"class.cv::Vec" }
%"class.cv::Vec" = type { %"class.cv::Matx" }
%"class.cv::Matx" = type { [4 x double] }

@_ZN2cvL16g_MatOp_IdentityE = internal global %"class.cv::MatOp_Identity" zeroinitializer, align 8
@_ZN2cvL14g_MatOp_InvertE = internal global %"class.cv::MatOp_Invert" zeroinitializer, align 8

; Function Attrs: mustprogress nounwind uwtable
define internal noundef zeroext i1 @_ZN2cvL10isIdentityERKNS_7MatExprE(ptr noundef nonnull align 8 dereferenceable(352) %0) #4 {
  %2 = alloca ptr, align 8
  store ptr %0, ptr %2, align 8
  %3 = load ptr, ptr %2, align 8
  %4 = getelementptr inbounds %"class.cv::MatExpr", ptr %3, i32 0, i32 0
  %5 = load ptr, ptr %4, align 8
  %6 = icmp eq ptr %5, @_ZN2cvL16g_MatOp_IdentityE
  ret i1 %6
}

; Function Attrs: mustprogress nounwind uwtable
define internal noundef zeroext i1 @_ZN2cvL5isInvERKNS_7MatExprE(ptr noundef nonnull align 8 dereferenceable(352) %0) #4 {
  %2 = alloca ptr, align 8
  store ptr %0, ptr %2, align 8
  %3 = load ptr, ptr %2, align 8
  %4 = getelementptr inbounds %"class.cv::MatExpr", ptr %3, i32 0, i32 0
  %5 = load ptr, ptr %4, align 8
  %6 = icmp eq ptr %5, @_ZN2cvL14g_MatOp_InvertE
  ret i1 %6
}

; Function Attrs: mustprogress uwtable
define hidden void @_ZNK2cv12MatOp_Invert6matmulERKNS_7MatExprES3_RS1_(ptr noundef nonnull align 8 dereferenceable(8) %0, ptr noundef nonnull align 8 dereferenceable(352) %1, ptr noundef nonnull align 8 dereferenceable(352) %2, ptr noundef nonnull align 8 dereferenceable(352) %3) unnamed_addr #6 align 2 {
  %5 = alloca ptr, align 8
  %6 = alloca ptr, align 8
  %7 = alloca ptr, align 8
  %8 = alloca ptr, align 8
  store ptr %0, ptr %5, align 8
  store ptr %1, ptr %6, align 8
  store ptr %2, ptr %7, align 8
  store ptr %3, ptr %8, align 8
  %9 = load ptr, ptr %5, align 8
  %10 = load ptr, ptr %6, align 8
  %11 = call noundef zeroext i1 @_ZN2cvL5isInvERKNS_7MatExprE(ptr noundef nonnull align 8 dereferenceable(352) %10)
  br i1 %11, label %12, label %24

12:                                               ; preds = %4
  %13 = load ptr, ptr %7, align 8
  %14 = call noundef zeroext i1 @_ZN2cvL10isIdentityERKNS_7MatExprE(ptr noundef nonnull align 8 dereferenceable(352) %13)
  br i1 %14, label %15, label %24

15:                                               ; preds = %12
  %16 = load ptr, ptr %8, align 8
  %17 = load ptr, ptr %6, align 8
  %18 = getelementptr inbounds %"class.cv::MatExpr", ptr %17, i32 0, i32 1
  %19 = load i32, ptr %18, align 8
  %20 = load ptr, ptr %6, align 8
  %21 = getelementptr inbounds %"class.cv::MatExpr", ptr %20, i32 0, i32 2
  %22 = load ptr, ptr %7, align 8
  %23 = getelementptr inbounds %"class.cv::MatExpr", ptr %22, i32 0, i32 2
  call void @_ZN2cv11MatOp_Solve8makeExprERNS_7MatExprEiRKNS_3MatES5_(ptr noundef nonnull align 8 dereferenceable(352) %16, i32 noundef %19, ptr noundef nonnull align 8 dereferenceable(96) %21, ptr noundef nonnull align 8 dereferenceable(96) %23)
  br label %44

24:                                               ; preds = %12, %4
  %25 = load ptr, ptr %7, align 8
  %26 = getelementptr inbounds %"class.cv::MatExpr", ptr %25, i32 0, i32 0
  %27 = load ptr, ptr %26, align 8
  %28 = icmp eq ptr %9, %27
  br i1 %28, label %29, label %33

29:                                               ; preds = %24
  %30 = load ptr, ptr %6, align 8
  %31 = load ptr, ptr %7, align 8
  %32 = load ptr, ptr %8, align 8
  call void @_ZNK2cv5MatOp6matmulERKNS_7MatExprES3_RS1_(ptr noundef nonnull align 8 dereferenceable(8) %9, ptr noundef nonnull align 8 dereferenceable(352) %30, ptr noundef nonnull align 8 dereferenceable(352) %31, ptr noundef nonnull align 8 dereferenceable(352) %32)
  br label %43

33:                                               ; preds = %24
  %34 = load ptr, ptr %7, align 8
  %35 = getelementptr inbounds %"class.cv::MatExpr", ptr %34, i32 0, i32 0
  %36 = load ptr, ptr %35, align 8
  %37 = load ptr, ptr %6, align 8
  %38 = load ptr, ptr %7, align 8
  %39 = load ptr, ptr %8, align 8
  %40 = load ptr, ptr %36, align 8
  %41 = getelementptr inbounds ptr, ptr %40, i64 23
  %42 = load ptr, ptr %41, align 8
  call void %42(ptr noundef nonnull align 8 dereferenceable(8) %36, ptr noundef nonnull align 8 dereferenceable(352) %37, ptr noundef nonnull align 8 dereferenceable(352) %38, ptr noundef nonnull align 8 dereferenceable(352) %39)
  br label %43

43:                                               ; preds = %33, %29
  br label %44

44:                                               ; preds = %43, %15
  ret void
}