; Function Attrs: mustprogress uwtable
define hidden void @_ZNK2cv12MatOp_Invert6matmulERKNS_7MatExprES3_RS1_(ptr noundef nonnull align 8 dereferenceable(8) %0, ptr noundef nonnull align 8 dereferenceable(352) %1, ptr noundef nonnull align 8 dereferenceable(352) %2, ptr noundef nonnull align 8 dereferenceable(352) %3) unnamed_addr #8 align 2 {
  %.val16 = load ptr, ptr %1, align 8
  %5 = icmp eq ptr %.val16, @_ZN2cvL14g_MatOp_InvertE
  %.val = load ptr, ptr %2, align 8
  %6 = icmp eq ptr %.val, @_ZN2cvL16g_MatOp_IdentityE
  %or.cond = select i1 %5, i1 %6, i1 false
  br i1 %or.cond, label %7, label %12

7:                                                ; preds = %4
  %8 = getelementptr inbounds i8, ptr %1, i64 8
  %9 = load i32, ptr %8, align 8
  %10 = getelementptr inbounds i8, ptr %1, i64 16
  %11 = getelementptr inbounds i8, ptr %2, i64 16
  tail call void @_ZN2cv11MatOp_Solve8makeExprERNS_7MatExprEiRKNS_3MatES5_(ptr noundef nonnull align 8 dereferenceable(352) %3, i32 noundef %9, ptr noundef nonnull align 8 dereferenceable(96) %10, ptr noundef nonnull align 8 dereferenceable(96) %11)
  br label %19

12:                                               ; preds = %4
  %13 = icmp eq ptr %.val, %0
  br i1 %13, label %14, label %15

14:                                               ; preds = %12
  tail call void @_ZNK2cv5MatOp6matmulERKNS_7MatExprES3_RS1_(ptr noundef nonnull align 8 dereferenceable(8) %0, ptr noundef nonnull align 8 dereferenceable(352) %1, ptr noundef nonnull align 8 dereferenceable(352) %2, ptr noundef nonnull align 8 dereferenceable(352) %3)
  br label %19

15:                                               ; preds = %12
  %16 = load ptr, ptr %.val, align 8
  %17 = getelementptr inbounds i8, ptr %16, i64 184
  %18 = load ptr, ptr %17, align 8
  tail call void %18(ptr noundef nonnull align 8 dereferenceable(8) %.val, ptr noundef nonnull align 8 dereferenceable(352) %1, ptr noundef nonnull align 8 dereferenceable(352) %2, ptr noundef nonnull align 8 dereferenceable(352) %3)
  br label %19

19:                                               ; preds = %14, %15, %7
  ret void
}